; ModuleID = '55/185.c'
source_filename = "55/185.c"
target datalayout = "e-m:e-p270:32:32-p271:32:32-p272:64:64-i64:64-f80:128-n8:16:32:64-S128"
target triple = "x86_64-pc-linux-gnu"

@.str = private unnamed_addr constant [9 x i8] c"%d %s %d\00", align 1
@.str.1 = private unnamed_addr constant [3 x i8] c"0\0A\00", align 1
@.str.2 = private unnamed_addr constant [3 x i8] c"%c\00", align 1
@.str.3 = private unnamed_addr constant [2 x i8] c"\0A\00", align 1

; Function Attrs: noinline nounwind uwtable
define dso_local i32 @main() #0 {
  %1 = alloca i32, align 4
  %2 = alloca i32, align 4
  %3 = alloca i32, align 4
  %4 = alloca i32, align 4
  %5 = alloca i32, align 4
  %6 = alloca i32, align 4
  %7 = alloca i32, align 4
  %8 = alloca i32, align 4
  %9 = alloca [100 x i8], align 16
  store i32 0, i32* %1, align 4
  store i32 0, i32* %4, align 4
  %10 = getelementptr inbounds [100 x i8], [100 x i8]* %9, i64 0, i64 0
  %11 = call i32 (i8*, ...) @__isoc99_scanf(i8* getelementptr inbounds ([9 x i8], [9 x i8]* @.str, i64 0, i64 0), i32* %2, i8* %10, i32* %3)
  %12 = getelementptr inbounds [100 x i8], [100 x i8]* %9, i64 0, i64 0
  %13 = call i64 @strlen(i8* %12) #3
  %14 = trunc i64 %13 to i32
  store i32 %14, i32* %5, align 4
  store i32 0, i32* %6, align 4
  br label %15

15:                                               ; preds = %77, %0
  %16 = load i32, i32* %6, align 4
  %17 = load i32, i32* %5, align 4
  %18 = icmp slt i32 %16, %17
  br i1 %18, label %19, label %80

19:                                               ; preds = %15
  %20 = load i32, i32* %6, align 4
  %21 = sext i32 %20 to i64
  %22 = getelementptr inbounds [100 x i8], [100 x i8]* %9, i64 0, i64 %21
  %23 = load i8, i8* %22, align 1
  %24 = sext i8 %23 to i32
  %25 = icmp sge i32 %24, 48
  br i1 %25, label %26, label %40

26:                                               ; preds = %19
  %27 = load i32, i32* %6, align 4
  %28 = sext i32 %27 to i64
  %29 = getelementptr inbounds [100 x i8], [100 x i8]* %9, i64 0, i64 %28
  %30 = load i8, i8* %29, align 1
  %31 = sext i8 %30 to i32
  %32 = icmp sle i32 %31, 57
  br i1 %32, label %33, label %40

33:                                               ; preds = %26
  %34 = load i32, i32* %6, align 4
  %35 = sext i32 %34 to i64
  %36 = getelementptr inbounds [100 x i8], [100 x i8]* %9, i64 0, i64 %35
  %37 = load i8, i8* %36, align 1
  %38 = sext i8 %37 to i32
  %39 = sub nsw i32 %38, 48
  store i32 %39, i32* %7, align 4
  br label %71

40:                                               ; preds = %26, %19
  %41 = load i32, i32* %6, align 4
  %42 = sext i32 %41 to i64
  %43 = getelementptr inbounds [100 x i8], [100 x i8]* %9, i64 0, i64 %42
  %44 = load i8, i8* %43, align 1
  %45 = sext i8 %44 to i32
  %46 = icmp sge i32 %45, 97
  br i1 %46, label %47, label %62

47:                                               ; preds = %40
  %48 = load i32, i32* %6, align 4
  %49 = sext i32 %48 to i64
  %50 = getelementptr inbounds [100 x i8], [100 x i8]* %9, i64 0, i64 %49
  %51 = load i8, i8* %50, align 1
  %52 = sext i8 %51 to i32
  %53 = icmp sle i32 %52, 122
  br i1 %53, label %54, label %62

54:                                               ; preds = %47
  %55 = load i32, i32* %6, align 4
  %56 = sext i32 %55 to i64
  %57 = getelementptr inbounds [100 x i8], [100 x i8]* %9, i64 0, i64 %56
  %58 = load i8, i8* %57, align 1
  %59 = sext i8 %58 to i32
  %60 = sub nsw i32 %59, 97
  %61 = add nsw i32 %60, 10
  store i32 %61, i32* %7, align 4
  br label %70

62:                                               ; preds = %47, %40
  %63 = load i32, i32* %6, align 4
  %64 = sext i32 %63 to i64
  %65 = getelementptr inbounds [100 x i8], [100 x i8]* %9, i64 0, i64 %64
  %66 = load i8, i8* %65, align 1
  %67 = sext i8 %66 to i32
  %68 = sub nsw i32 %67, 65
  %69 = add nsw i32 %68, 10
  store i32 %69, i32* %7, align 4
  br label %70

70:                                               ; preds = %62, %54
  br label %71

71:                                               ; preds = %70, %33
  %72 = load i32, i32* %4, align 4
  %73 = load i32, i32* %2, align 4
  %74 = mul nsw i32 %72, %73
  %75 = load i32, i32* %7, align 4
  %76 = add nsw i32 %74, %75
  store i32 %76, i32* %4, align 4
  br label %77

77:                                               ; preds = %71
  %78 = load i32, i32* %6, align 4
  %79 = add nsw i32 %78, 1
  store i32 %79, i32* %6, align 4
  br label %15

80:                                               ; preds = %15
  store i32 0, i32* %6, align 4
  %81 = load i32, i32* %4, align 4
  %82 = icmp eq i32 %81, 0
  br i1 %82, label %83, label %85

83:                                               ; preds = %80
  %84 = call i32 (i8*, ...) @printf(i8* getelementptr inbounds ([3 x i8], [3 x i8]* @.str.1, i64 0, i64 0))
  br label %150

85:                                               ; preds = %80
  br label %86

86:                                               ; preds = %110, %85
  %87 = load i32, i32* %4, align 4
  %88 = icmp ne i32 %87, 0
  br i1 %88, label %89, label %116

89:                                               ; preds = %86
  %90 = load i32, i32* %4, align 4
  %91 = load i32, i32* %3, align 4
  %92 = srem i32 %90, %91
  store i32 %92, i32* %8, align 4
  %93 = load i32, i32* %8, align 4
  %94 = icmp slt i32 %93, 10
  br i1 %94, label %95, label %102

95:                                               ; preds = %89
  %96 = load i32, i32* %8, align 4
  %97 = add nsw i32 %96, 48
  %98 = trunc i32 %97 to i8
  %99 = load i32, i32* %6, align 4
  %100 = sext i32 %99 to i64
  %101 = getelementptr inbounds [100 x i8], [100 x i8]* %9, i64 0, i64 %100
  store i8 %98, i8* %101, align 1
  br label %110

102:                                              ; preds = %89
  %103 = load i32, i32* %8, align 4
  %104 = sub nsw i32 %103, 10
  %105 = add nsw i32 %104, 65
  %106 = trunc i32 %105 to i8
  %107 = load i32, i32* %6, align 4
  %108 = sext i32 %107 to i64
  %109 = getelementptr inbounds [100 x i8], [100 x i8]* %9, i64 0, i64 %108
  store i8 %106, i8* %109, align 1
  br label %110

110:                                              ; preds = %102, %95
  %111 = load i32, i32* %3, align 4
  %112 = load i32, i32* %4, align 4
  %113 = sdiv i32 %112, %111
  store i32 %113, i32* %4, align 4
  %114 = load i32, i32* %6, align 4
  %115 = add nsw i32 %114, 1
  store i32 %115, i32* %6, align 4
  br label %86

116:                                              ; preds = %86
  %117 = load i32, i32* %6, align 4
  %118 = sext i32 %117 to i64
  %119 = getelementptr inbounds [100 x i8], [100 x i8]* %9, i64 0, i64 %118
  store i8 0, i8* %119, align 1
  %120 = getelementptr inbounds [100 x i8], [100 x i8]* %9, i64 0, i64 0
  %121 = call i64 @strlen(i8* %120) #3
  %122 = sub i64 %121, 1
  %123 = trunc i64 %122 to i32
  store i32 %123, i32* %6, align 4
  br label %124

124:                                              ; preds = %131, %116
  %125 = load i32, i32* %6, align 4
  %126 = sext i32 %125 to i64
  %127 = getelementptr inbounds [100 x i8], [100 x i8]* %9, i64 0, i64 %126
  %128 = load i8, i8* %127, align 1
  %129 = sext i8 %128 to i32
  %130 = icmp eq i32 %129, 48
  br i1 %130, label %131, label %134

131:                                              ; preds = %124
  %132 = load i32, i32* %6, align 4
  %133 = add nsw i32 %132, -1
  store i32 %133, i32* %6, align 4
  br label %124

134:                                              ; preds = %124
  br label %135

135:                                              ; preds = %145, %134
  %136 = load i32, i32* %6, align 4
  %137 = icmp sge i32 %136, 0
  br i1 %137, label %138, label %148

138:                                              ; preds = %135
  %139 = load i32, i32* %6, align 4
  %140 = sext i32 %139 to i64
  %141 = getelementptr inbounds [100 x i8], [100 x i8]* %9, i64 0, i64 %140
  %142 = load i8, i8* %141, align 1
  %143 = sext i8 %142 to i32
  %144 = call i32 (i8*, ...) @printf(i8* getelementptr inbounds ([3 x i8], [3 x i8]* @.str.2, i64 0, i64 0), i32 %143)
  br label %145

145:                                              ; preds = %138
  %146 = load i32, i32* %6, align 4
  %147 = add nsw i32 %146, -1
  store i32 %147, i32* %6, align 4
  br label %135

148:                                              ; preds = %135
  %149 = call i32 (i8*, ...) @printf(i8* getelementptr inbounds ([2 x i8], [2 x i8]* @.str.3, i64 0, i64 0))
  br label %150

150:                                              ; preds = %148, %83
  ret i32 0
}

declare dso_local i32 @__isoc99_scanf(i8*, ...) #1

; Function Attrs: nounwind readonly
declare dso_local i64 @strlen(i8*) #2

declare dso_local i32 @printf(i8*, ...) #1


!llvm.module.flags = !{!0}
!llvm.ident = !{!1}

!0 = !{i32 1, !"wchar_size", i32 4}
!1 = !{!"clang version 10.0.0-4ubuntu1 "}
